; Function Attrs: nounwind uwtable
define range(i32 0, 2) i32 @test_uint_ne(ptr noundef %0, i32 noundef %1, ptr noundef %2, ptr noundef %3, i32 noundef %4, i32 noundef %5) local_unnamed_addr #0 {
  %.not = icmp eq i32 %4, %5
  br i1 %.not, label %7, label %8

7:                                                ; preds = %6
  tail call void (ptr, ptr, i32, ptr, ptr, ptr, ptr, ptr, ...) @test_fail_message(ptr poison, ptr noundef %0, i32 noundef %1, ptr noundef nonnull @.str.19, ptr noundef %2, ptr noundef %3, ptr noundef nonnull @.str.14, ptr noundef nonnull @.str.20, i32 noundef %4, i32 noundef %4)
  br label %8

8:                                                ; preds = %6, %7
  %.0 = phi i32 [ 0, %7 ], [ 1, %6 ]
  ret i32 %.0
}